target datalayout = "e-m:e-p270:32:32-p271:32:32-p272:64:64-i64:64-i128:128-f80:128-n8:16:32:64-S128"
target triple = "x86_64-unknown-linux-gnu"

; Function Attrs: mustprogress uwtable
define noundef i32 @_ZN6icu_7524CollationElementIterator15getMaxExpansionEPK10UHashtablei(ptr noundef %maxExpansions, i32 noundef %order) #1 align 2 {
entry:
  %retval = alloca i32, align 4
  %maxExpansions.addr = alloca ptr, align 8
  %order.addr = alloca i32, align 4
  %max = alloca i32, align 4
  store ptr %maxExpansions, ptr %maxExpansions.addr, align 8
  store i32 %order, ptr %order.addr, align 4
  %0 = load i32, ptr %order.addr, align 4
  %cmp = icmp eq i32 %0, 0
  br i1 %cmp, label %if.then, label %if.end

if.then:                                          ; preds = %entry
  store i32 1, ptr %retval, align 4
  br label %return

if.end:                                           ; preds = %entry
  %1 = load ptr, ptr %maxExpansions.addr, align 8
  %cmp1 = icmp ne ptr %1, null
  br i1 %cmp1, label %land.lhs.true, label %if.end4

land.lhs.true:                                    ; preds = %if.end
  %2 = load ptr, ptr %maxExpansions.addr, align 8
  %3 = load i32, ptr %order.addr, align 4
  %call = call i32 @uhash_igeti_75(ptr noundef %2, i32 noundef %3)
  store i32 %call, ptr %max, align 4
  %cmp2 = icmp ne i32 %call, 0
  br i1 %cmp2, label %if.then3, label %if.end4

if.then3:                                         ; preds = %land.lhs.true
  %4 = load i32, ptr %max, align 4
  store i32 %4, ptr %retval, align 4
  br label %return

if.end4:                                          ; preds = %land.lhs.true, %if.end
  %5 = load i32, ptr %order.addr, align 4
  %and = and i32 %5, 192
  %cmp5 = icmp eq i32 %and, 192
  br i1 %cmp5, label %if.then6, label %if.else

if.then6:                                         ; preds = %if.end4
  store i32 2, ptr %retval, align 4
  br label %return

if.else:                                          ; preds = %if.end4
  store i32 1, ptr %retval, align 4
  br label %return

return:                                           ; preds = %if.else, %if.then6, %if.then3, %if.then
  %6 = load i32, ptr %retval, align 4
  ret i32 %6
}