; Function Attrs: mustprogress uwtable
define noundef i32 @_ZN6icu_7524CollationElementIterator15getMaxExpansionEPK10UHashtablei(ptr noundef %maxExpansions, i32 noundef %order) local_unnamed_addr #1 align 2 {
entry:
  %cmp = icmp eq i32 %order, 0
  br i1 %cmp, label %return, label %if.end

if.end:                                           ; preds = %entry
  %cmp1.not = icmp eq ptr %maxExpansions, null
  br i1 %cmp1.not, label %if.end4, label %land.lhs.true

land.lhs.true:                                    ; preds = %if.end
  %call = tail call i32 @uhash_igeti_75(ptr noundef nonnull %maxExpansions, i32 noundef %order)
  %cmp2.not = icmp eq i32 %call, 0
  br i1 %cmp2.not, label %if.end4, label %return

if.end4:                                          ; preds = %land.lhs.true, %if.end
  %and = and i32 %order, 192
  %cmp5 = icmp eq i32 %and, 192
  %. = select i1 %cmp5, i32 2, i32 1
  br label %return

return:                                           ; preds = %if.end4, %land.lhs.true, %entry
  %retval.0 = phi i32 [ 1, %entry ], [ %call, %land.lhs.true ], [ %., %if.end4 ]
  ret i32 %retval.0
}